target datalayout = "e-m:e-p270:32:32-p271:32:32-p272:64:64-i64:64-i128:128-f80:128-n8:16:32:64-S128"
target triple = "x86_64-pc-linux-gnu"

%struct.xl_dbase_create_wal_log_rec = type { i32, i32 }

@.str.18 = private unnamed_addr constant [13 x i8] c"dbcommands.c\00", align 1
@.str.128 = private unnamed_addr constant [4 x i8] c"%s\0A\00", align 1
@.str.129 = private unnamed_addr constant [3 x i8] c"18\00", align 1
@.str.130 = private unnamed_addr constant [36 x i8] c"could not create directory \22%s\22: %m\00", align 1
@__func__.CreateDirAndVersionFile = private unnamed_addr constant [24 x i8] c"CreateDirAndVersionFile\00", align 1
@.str.131 = private unnamed_addr constant [6 x i8] c"%s/%s\00", align 1
@.str.132 = private unnamed_addr constant [11 x i8] c"PG_VERSION\00", align 1
@.str.133 = private unnamed_addr constant [31 x i8] c"could not create file \22%s\22: %m\00", align 1
@.str.134 = private unnamed_addr constant [33 x i8] c"could not write to file \22%s\22: %m\00", align 1
@.str.135 = private unnamed_addr constant [30 x i8] c"could not fsync file \22%s\22: %m\00", align 1
@CritSectionCount = external global i32, align 4
@my_wait_event_info = external global ptr, align 8

; Function Attrs: inlinehint nounwind uwtable
define internal void @pgstat_report_wait_end() #7 {
  %1 = load ptr, ptr @my_wait_event_info, align 8
  store volatile i32 0, ptr %1, align 4
  ret void
}

; Function Attrs: inlinehint nounwind uwtable
define internal void @pgstat_report_wait_start(i32 noundef %0) #7 {
  %2 = alloca i32, align 4
  store i32 %0, ptr %2, align 4
  %3 = load i32, ptr %2, align 4
  %4 = load ptr, ptr @my_wait_event_info, align 8
  store volatile i32 %3, ptr %4, align 4
  ret void
}

; Function Attrs: nounwind uwtable
define internal void @CreateDirAndVersionFile(ptr noundef %0, i32 noundef %1, i32 noundef %2, i1 noundef zeroext %3) #0 {
  %5 = alloca ptr, align 8
  %6 = alloca i32, align 4
  %7 = alloca i32, align 4
  %8 = alloca i8, align 1
  %9 = alloca i32, align 4
  %10 = alloca i32, align 4
  %11 = alloca [1024 x i8], align 16
  %12 = alloca [16 x i8], align 16
  %13 = alloca %struct.xl_dbase_create_wal_log_rec, align 4
  store ptr %0, ptr %5, align 8
  store i32 %1, ptr %6, align 4
  store i32 %2, ptr %7, align 4
  %14 = zext i1 %3 to i8
  store i8 %14, ptr %8, align 1
  call void @llvm.lifetime.start.p0(i64 4, ptr %9) #14
  call void @llvm.lifetime.start.p0(i64 4, ptr %10) #14
  call void @llvm.lifetime.start.p0(i64 1024, ptr %11) #14
  call void @llvm.lifetime.start.p0(i64 16, ptr %12) #14
  %15 = getelementptr inbounds [16 x i8], ptr %12, i64 0, i64 0
  %16 = call i32 (ptr, ptr, ...) @pg_sprintf(ptr noundef %15, ptr noundef @.str.128, ptr noundef @.str.129)
  store i32 3, ptr %10, align 4
  %17 = load ptr, ptr %5, align 8
  %18 = call i32 @MakePGDirectory(ptr noundef %17)
  %19 = icmp slt i32 %18, 0
  br i1 %19, label %20, label %41

20:                                               ; preds = %4
  %21 = call ptr @__errno_location() #19
  %22 = load i32, ptr %21, align 4
  %23 = icmp ne i32 %22, 17
  br i1 %23, label %27, label %24

24:                                               ; preds = %20
  %25 = load i8, ptr %8, align 1, !range !4, !noundef !5
  %26 = trunc i8 %25 to i1
  br i1 %26, label %40, label %27

27:                                               ; preds = %24, %20
  br label %28

28:                                               ; preds = %27
  br i1 true, label %29, label %31

29:                                               ; preds = %28
  %30 = call zeroext i1 @errstart_cold(i32 noundef 21, ptr noundef null) #17
  br i1 %30, label %33, label %37

31:                                               ; preds = %28
  %32 = call zeroext i1 @errstart(i32 noundef 21, ptr noundef null)
  br i1 %32, label %33, label %37

33:                                               ; preds = %31, %29
  %34 = call i32 @errcode_for_file_access()
  %35 = load ptr, ptr %5, align 8
  %36 = call i32 (ptr, ...) @errmsg(ptr noundef @.str.130, ptr noundef %35)
  call void @errfinish(ptr noundef @.str.18, i32 noundef 477, ptr noundef @__func__.CreateDirAndVersionFile)
  br label %37

37:                                               ; preds = %33, %31, %29
  unreachable

38:                                               ; No predecessors!
  br label %39

39:                                               ; preds = %38
  br label %40

40:                                               ; preds = %39, %24
  br label %41

41:                                               ; preds = %40, %4
  %42 = getelementptr inbounds [1024 x i8], ptr %11, i64 0, i64 0
  %43 = load ptr, ptr %5, align 8
  %44 = call i32 (ptr, i64, ptr, ...) @pg_snprintf(ptr noundef %42, i64 noundef 1024, ptr noundef @.str.131, ptr noundef %43, ptr noundef @.str.132)
  %45 = getelementptr inbounds [1024 x i8], ptr %11, i64 0, i64 0
  %46 = call i32 @OpenTransientFile(ptr noundef %45, i32 noundef 193)
  store i32 %46, ptr %9, align 4
  %47 = load i32, ptr %9, align 4
  %48 = icmp slt i32 %47, 0
  br i1 %48, label %49, label %59

49:                                               ; preds = %41
  %50 = call ptr @__errno_location() #19
  %51 = load i32, ptr %50, align 4
  %52 = icmp eq i32 %51, 17
  br i1 %52, label %53, label %59

53:                                               ; preds = %49
  %54 = load i8, ptr %8, align 1, !range !4, !noundef !5
  %55 = trunc i8 %54 to i1
  br i1 %55, label %56, label %59

56:                                               ; preds = %53
  %57 = getelementptr inbounds [1024 x i8], ptr %11, i64 0, i64 0
  %58 = call i32 @OpenTransientFile(ptr noundef %57, i32 noundef 513)
  store i32 %58, ptr %9, align 4
  br label %59

59:                                               ; preds = %56, %53, %49, %41
  %60 = load i32, ptr %9, align 4
  %61 = icmp slt i32 %60, 0
  br i1 %61, label %62, label %75

62:                                               ; preds = %59
  br label %63

63:                                               ; preds = %62
  br i1 true, label %64, label %66

64:                                               ; preds = %63
  %65 = call zeroext i1 @errstart_cold(i32 noundef 21, ptr noundef null) #17
  br i1 %65, label %68, label %72

66:                                               ; preds = %63
  %67 = call zeroext i1 @errstart(i32 noundef 21, ptr noundef null)
  br i1 %67, label %68, label %72

68:                                               ; preds = %66, %64
  %69 = call i32 @errcode_for_file_access()
  %70 = getelementptr inbounds [1024 x i8], ptr %11, i64 0, i64 0
  %71 = call i32 (ptr, ...) @errmsg(ptr noundef @.str.133, ptr noundef %70)
  call void @errfinish(ptr noundef @.str.18, i32 noundef 494, ptr noundef @__func__.CreateDirAndVersionFile)
  br label %72

72:                                               ; preds = %68, %66, %64
  unreachable

73:                                               ; No predecessors!
  br label %74

74:                                               ; preds = %73
  br label %75

75:                                               ; preds = %74, %59
  call void @pgstat_report_wait_start(i32 noundef 167772222)
  %76 = call ptr @__errno_location() #19
  store i32 0, ptr %76, align 4
  %77 = load i32, ptr %9, align 4
  %78 = getelementptr inbounds [16 x i8], ptr %12, i64 0, i64 0
  %79 = load i32, ptr %10, align 4
  %80 = sext i32 %79 to i64
  %81 = call i64 @write(i32 noundef %77, ptr noundef %78, i64 noundef %80)
  %82 = trunc i64 %81 to i32
  %83 = load i32, ptr %10, align 4
  %84 = icmp ne i32 %82, %83
  br i1 %84, label %85, label %104

85:                                               ; preds = %75
  %86 = call ptr @__errno_location() #19
  %87 = load i32, ptr %86, align 4
  %88 = icmp eq i32 %87, 0
  br i1 %88, label %89, label %91

89:                                               ; preds = %85
  %90 = call ptr @__errno_location() #19
  store i32 28, ptr %90, align 4
  br label %91

91:                                               ; preds = %89, %85
  br label %92

92:                                               ; preds = %91
  br i1 true, label %93, label %95

93:                                               ; preds = %92
  %94 = call zeroext i1 @errstart_cold(i32 noundef 21, ptr noundef null) #17
  br i1 %94, label %97, label %101

95:                                               ; preds = %92
  %96 = call zeroext i1 @errstart(i32 noundef 21, ptr noundef null)
  br i1 %96, label %97, label %101

97:                                               ; preds = %95, %93
  %98 = call i32 @errcode_for_file_access()
  %99 = getelementptr inbounds [1024 x i8], ptr %11, i64 0, i64 0
  %100 = call i32 (ptr, ...) @errmsg(ptr noundef @.str.134, ptr noundef %99)
  call void @errfinish(ptr noundef @.str.18, i32 noundef 506, ptr noundef @__func__.CreateDirAndVersionFile)
  br label %101

101:                                              ; preds = %97, %95, %93
  unreachable

102:                                              ; No predecessors!
  br label %103

103:                                              ; preds = %102
  br label %104

104:                                              ; preds = %103, %75
  call void @pgstat_report_wait_end()
  call void @pgstat_report_wait_start(i32 noundef 167772221)
  %105 = load i32, ptr %9, align 4
  %106 = call i32 @pg_fsync(i32 noundef %105)
  %107 = icmp ne i32 %106, 0
  br i1 %107, label %108, label %126

108:                                              ; preds = %104
  br label %109

109:                                              ; preds = %108
  br i1 false, label %110, label %116

110:                                              ; preds = %109
  %111 = call i32 @data_sync_elevel(i32 noundef 21)
  %112 = icmp sge i32 %111, 21
  br i1 %112, label %113, label %116

113:                                              ; preds = %110
  %114 = call i32 @data_sync_elevel(i32 noundef 21)
  %115 = call zeroext i1 @errstart_cold(i32 noundef %114, ptr noundef null) #17
  br i1 %115, label %119, label %123

116:                                              ; preds = %110, %109
  %117 = call i32 @data_sync_elevel(i32 noundef 21)
  %118 = call zeroext i1 @errstart(i32 noundef %117, ptr noundef null)
  br i1 %118, label %119, label %123

119:                                              ; preds = %116, %113
  %120 = call i32 @errcode_for_file_access()
  %121 = getelementptr inbounds [1024 x i8], ptr %11, i64 0, i64 0
  %122 = call i32 (ptr, ...) @errmsg(ptr noundef @.str.135, ptr noundef %121)
  call void @errfinish(ptr noundef @.str.18, i32 noundef 514, ptr noundef @__func__.CreateDirAndVersionFile)
  br label %123

123:                                              ; preds = %119, %116, %113
  br label %124

124:                                              ; preds = %123
  br label %125

125:                                              ; preds = %124
  br label %126

126:                                              ; preds = %125, %104
  %127 = load ptr, ptr %5, align 8
  call void @fsync_fname(ptr noundef %127, i1 noundef zeroext true)
  call void @pgstat_report_wait_end()
  %128 = load i32, ptr %9, align 4
  %129 = call i32 @CloseTransientFile(i32 noundef %128)
  %130 = load i8, ptr %8, align 1, !range !4, !noundef !5
  %131 = trunc i8 %130 to i1
  br i1 %131, label %145, label %132

132:                                              ; preds = %126
  call void @llvm.lifetime.start.p0(i64 8, ptr %13) #14
  %133 = load volatile i32, ptr @CritSectionCount, align 4
  %134 = add i32 %133, 1
  store volatile i32 %134, ptr @CritSectionCount, align 4
  %135 = load i32, ptr %6, align 4
  %136 = getelementptr inbounds nuw %struct.xl_dbase_create_wal_log_rec, ptr %13, i32 0, i32 0
  store i32 %135, ptr %136, align 4
  %137 = load i32, ptr %7, align 4
  %138 = getelementptr inbounds nuw %struct.xl_dbase_create_wal_log_rec, ptr %13, i32 0, i32 1
  store i32 %137, ptr %138, align 4
  call void @XLogBeginInsert()
  call void @XLogRegisterData(ptr noundef %13, i32 noundef 8)
  %139 = call i64 @XLogInsert(i8 noundef zeroext 4, i8 noundef zeroext 16)
  br label %140

140:                                              ; preds = %132
  %141 = load volatile i32, ptr @CritSectionCount, align 4
  %142 = add i32 %141, -1
  store volatile i32 %142, ptr @CritSectionCount, align 4
  br label %143

143:                                              ; preds = %140
  br label %144

144:                                              ; preds = %143
  call void @llvm.lifetime.end.p0(i64 8, ptr %13) #14
  br label %145

145:                                              ; preds = %144, %126
  call void @llvm.lifetime.end.p0(i64 16, ptr %12) #14
  call void @llvm.lifetime.end.p0(i64 1024, ptr %11) #14
  call void @llvm.lifetime.end.p0(i64 4, ptr %10) #14
  call void @llvm.lifetime.end.p0(i64 4, ptr %9) #14
  ret void
}