; Function Attrs: nounwind uwtable
define internal fastcc void @CreateDirAndVersionFile(ptr noundef %0, i32 noundef %1, i32 noundef %2, i1 noundef zeroext %3) unnamed_addr #0 {
  %5 = alloca [1024 x i8], align 16
  %6 = alloca [16 x i8], align 16
  %7 = alloca %struct.xl_dbase_create_wal_log_rec, align 4
  call void @llvm.lifetime.start.p0(i64 1024, ptr nonnull %5) #16
  call void @llvm.lifetime.start.p0(i64 16, ptr nonnull %6) #16
  %8 = call i32 (ptr, ptr, ...) @pg_sprintf(ptr noundef nonnull %6, ptr noundef nonnull @.str.128, ptr noundef nonnull @.str.129) #16
  %9 = call i32 @MakePGDirectory(ptr noundef %0) #16
  %10 = icmp slt i32 %9, 0
  br i1 %10, label %11, label %18

11:                                               ; preds = %4
  %12 = tail call ptr @__errno_location() #21
  %13 = load i32, ptr %12, align 4
  %.not = icmp eq i32 %13, 17
  %brmerge.not = and i1 %3, %.not
  br i1 %brmerge.not, label %18, label %14

14:                                               ; preds = %11
  %15 = call zeroext i1 @errstart_cold(i32 noundef 21, ptr noundef null) #19
  call void @llvm.assume(i1 %15)
  %16 = call i32 @errcode_for_file_access() #16
  %17 = call i32 (ptr, ...) @errmsg(ptr noundef nonnull @.str.130, ptr noundef %0) #16
  call void @errfinish(ptr noundef nonnull @.str.18, i32 noundef 477, ptr noundef nonnull @__func__.CreateDirAndVersionFile) #16
  unreachable

18:                                               ; preds = %11, %4
  %19 = call i32 (ptr, i64, ptr, ...) @pg_snprintf(ptr noundef nonnull %5, i64 noundef 1024, ptr noundef nonnull @.str.131, ptr noundef %0, ptr noundef nonnull @.str.132) #16
  %20 = call i32 @OpenTransientFile(ptr noundef nonnull %5, i32 noundef 193) #16
  %21 = icmp slt i32 %20, 0
  br i1 %21, label %22, label %.thread23

22:                                               ; preds = %18
  %23 = tail call ptr @__errno_location() #21
  %24 = load i32, ptr %23, align 4
  %25 = icmp eq i32 %24, 17
  %brmerge21.not = and i1 %3, %25
  br i1 %brmerge21.not, label %26, label %.thread

26:                                               ; preds = %22
  %27 = call i32 @OpenTransientFile(ptr noundef nonnull %5, i32 noundef 513) #16
  %28 = icmp slt i32 %27, 0
  br i1 %28, label %.thread, label %.thread23

.thread:                                          ; preds = %22, %26
  %29 = call zeroext i1 @errstart_cold(i32 noundef 21, ptr noundef null) #19
  call void @llvm.assume(i1 %29)
  %30 = call i32 @errcode_for_file_access() #16
  %31 = call i32 (ptr, ...) @errmsg(ptr noundef nonnull @.str.133, ptr noundef nonnull %5) #16
  call void @errfinish(ptr noundef nonnull @.str.18, i32 noundef 494, ptr noundef nonnull @__func__.CreateDirAndVersionFile) #16
  unreachable

.thread23:                                        ; preds = %18, %26
  %.025 = phi i32 [ %27, %26 ], [ %20, %18 ]
  %32 = load ptr, ptr @my_wait_event_info, align 8
  store volatile i32 167772222, ptr %32, align 4
  %33 = tail call ptr @__errno_location() #21
  store i32 0, ptr %33, align 4
  %34 = call i64 @write(i32 noundef %.025, ptr noundef nonnull %6, i64 noundef 3) #16
  %35 = and i64 %34, 4294967295
  %.not16 = icmp eq i64 %35, 3
  br i1 %.not16, label %44, label %36

36:                                               ; preds = %.thread23
  %37 = load i32, ptr %33, align 4
  %38 = icmp eq i32 %37, 0
  br i1 %38, label %39, label %40

39:                                               ; preds = %36
  store i32 28, ptr %33, align 4
  br label %40

40:                                               ; preds = %39, %36
  %41 = call zeroext i1 @errstart_cold(i32 noundef 21, ptr noundef null) #19
  call void @llvm.assume(i1 %41)
  %42 = call i32 @errcode_for_file_access() #16
  %43 = call i32 (ptr, ...) @errmsg(ptr noundef nonnull @.str.134, ptr noundef nonnull %5) #16
  call void @errfinish(ptr noundef nonnull @.str.18, i32 noundef 506, ptr noundef nonnull @__func__.CreateDirAndVersionFile) #16
  unreachable

44:                                               ; preds = %.thread23
  %45 = load ptr, ptr @my_wait_event_info, align 8
  store volatile i32 0, ptr %45, align 4
  %46 = load ptr, ptr @my_wait_event_info, align 8
  store volatile i32 167772221, ptr %46, align 4
  %47 = call i32 @pg_fsync(i32 noundef %.025) #16
  %.not17 = icmp eq i32 %47, 0
  br i1 %.not17, label %54, label %48

48:                                               ; preds = %44
  %49 = call i32 @data_sync_elevel(i32 noundef 21) #16
  %50 = call zeroext i1 @errstart(i32 noundef %49, ptr noundef null) #16
  br i1 %50, label %51, label %54

51:                                               ; preds = %48
  %52 = call i32 @errcode_for_file_access() #16
  %53 = call i32 (ptr, ...) @errmsg(ptr noundef nonnull @.str.135, ptr noundef nonnull %5) #16
  call void @errfinish(ptr noundef nonnull @.str.18, i32 noundef 514, ptr noundef nonnull @__func__.CreateDirAndVersionFile) #16
  br label %54

54:                                               ; preds = %48, %51, %44
  call void @fsync_fname(ptr noundef %0, i1 noundef zeroext true) #16
  %55 = load ptr, ptr @my_wait_event_info, align 8
  store volatile i32 0, ptr %55, align 4
  %56 = call i32 @CloseTransientFile(i32 noundef %.025) #16
  br i1 %3, label %64, label %57

57:                                               ; preds = %54
  call void @llvm.lifetime.start.p0(i64 8, ptr nonnull %7) #16
  %58 = load volatile i32, ptr @CritSectionCount, align 4
  %59 = add i32 %58, 1
  store volatile i32 %59, ptr @CritSectionCount, align 4
  store i32 %1, ptr %7, align 4
  %60 = getelementptr inbounds nuw i8, ptr %7, i64 4
  store i32 %2, ptr %60, align 4
  call void @XLogBeginInsert() #16
  call void @XLogRegisterData(ptr noundef nonnull %7, i32 noundef 8) #16
  %61 = call i64 @XLogInsert(i8 noundef zeroext 4, i8 noundef zeroext 16) #16
  %62 = load volatile i32, ptr @CritSectionCount, align 4
  %63 = add i32 %62, -1
  store volatile i32 %63, ptr @CritSectionCount, align 4
  call void @llvm.lifetime.end.p0(i64 8, ptr nonnull %7) #16
  br label %64

64:                                               ; preds = %57, %54
  call void @llvm.lifetime.end.p0(i64 16, ptr nonnull %6) #16
  call void @llvm.lifetime.end.p0(i64 1024, ptr nonnull %5) #16
  ret void
}